---
triple:          'arm64-apple-darwin'
binary-path:     '/Users/eugene/Desktop/C++/Lab/norm'
relocations:
  - { offsetInCU: 0x44, offset: 0x44, size: 0x8, addend: 0x0, symName: __ZN5EigenL4lastE, symObjAddr: 0x4A196, symBinAddr: 0x10000C000, symSize: 0x0 }
  - { offsetInCU: 0xB63, offset: 0xB63, size: 0x8, addend: 0x0, symName: __ZN5Eigen8internal31conditional_aligned_delete_autoINSt3__17complexIdEELb1EEEvPT_m, symObjAddr: 0x9A4, symBinAddr: 0x1000024EC, symSize: 0x28 }
  - { offsetInCU: 0xBAF, offset: 0xBAF, size: 0x8, addend: 0x0, symName: __ZN5Eigen8internal24conditional_aligned_freeILb1EEEvPv, symObjAddr: 0x9CC, symBinAddr: 0x100002514, symSize: 0x24 }
  - { offsetInCU: 0xBE3, offset: 0xBE3, size: 0x8, addend: 0x0, symName: __ZN5Eigen8internal12aligned_freeEPv, symObjAddr: 0x9F0, symBinAddr: 0x100002538, symSize: 0x24 }
  - { offsetInCU: 0xC6F, offset: 0xC6F, size: 0x8, addend: 0x0, symName: __ZN5Eigen8internal19throw_std_bad_allocEv, symObjAddr: 0xEA4, symBinAddr: 0x1000029EC, symSize: 0x34 }
  - { offsetInCU: 0xCAB, offset: 0xCAB, size: 0x8, addend: 0x0, symName: __ZN5Eigen8internal28conditional_aligned_new_autoINSt3__17complexIdEELb1EEEPT_m, symObjAddr: 0xED8, symBinAddr: 0x100002A20, symSize: 0x84 }
  - { offsetInCU: 0xD19, offset: 0xD19, size: 0x8, addend: 0x0, symName: __ZN5Eigen8internal26conditional_aligned_mallocILb1EEEPvm, symObjAddr: 0xF5C, symBinAddr: 0x100002AA4, symSize: 0x24 }
  - { offsetInCU: 0xD4F, offset: 0xD4F, size: 0x8, addend: 0x0, symName: __ZN5Eigen8internal14aligned_mallocEm, symObjAddr: 0xF80, symBinAddr: 0x100002AC8, symSize: 0xDC }
  - { offsetInCU: 0xD90, offset: 0xD90, size: 0x8, addend: 0x0, symName: __ZN5Eigen8internal28check_that_malloc_is_allowedEv, symObjAddr: 0x105C, symBinAddr: 0x100002BA4, symSize: 0x4 }
  - { offsetInCU: 0xDA9, offset: 0xDA9, size: 0x8, addend: 0x0, symName: __ZN5Eigen8internal12print_matrixINS_6MatrixINSt3__17complexIdEELin1ELin1ELi0ELin1ELin1EEEEERNS3_13basic_ostreamIcNS3_11char_traitsIcEEEESB_RKT_RKNS_8IOFormatE, symObjAddr: 0x13A4, symBinAddr: 0x100002EEC, symSize: 0x584 }
  - { offsetInCU: 0x1594, offset: 0x1594, size: 0x8, addend: 0x0, symName: __ZN5EigenL6lastp1E, symObjAddr: 0x4A197, symBinAddr: 0x10000C001, symSize: 0x0 }
  - { offsetInCU: 0x15AD, offset: 0x15AD, size: 0x8, addend: 0x0, symName: __ZN5EigenL3allE, symObjAddr: 0x4A199, symBinAddr: 0x10000C003, symSize: 0x0 }
  - { offsetInCU: 0x579D, offset: 0x579D, size: 0x8, addend: 0x0, symName: __ZN5Eigen3fixILi1EEENS_8internal8FixedIntIXT_EEEv, symObjAddr: 0x74, symBinAddr: 0x100001BBC, symSize: 0x20 }
  - { offsetInCU: 0x57C5, offset: 0x57C5, size: 0x8, addend: 0x0, symName: __ZN5EigenlsINS_6MatrixINSt3__17complexIdEELin1ELin1ELi0ELin1ELin1EEEEERNS2_13basic_ostreamIcNS2_11char_traitsIcEEEESA_RKNS_9DenseBaseIT_EE, symObjAddr: 0x5F8, symBinAddr: 0x100002140, symSize: 0x240 }
  - { offsetInCU: 0x580D, offset: 0x580D, size: 0x8, addend: 0x0, symName: __ZN5Eigen6numext4realIdEENS_8internal11real_retvalINS2_36global_math_functions_filtering_baseIT_vE4typeEE4typeERKS5_, symObjAddr: 0x4124, symBinAddr: 0x100005C6C, symSize: 0x24 }
  - { offsetInCU: 0x5844, offset: 0x5844, size: 0x8, addend: 0x0, symName: __ZN5Eigen6numext4abs2INSt3__17complexIdEEEENS_8internal11abs2_retvalINS5_36global_math_functions_filtering_baseIT_vE4typeEE4typeERKS8_, symObjAddr: 0x4DD0, symBinAddr: 0x100006918, symSize: 0x24 }
  - { offsetInCU: 0x8B64, offset: 0x8B64, size: 0x8, addend: 0x0, symName: __ZNSt3__124__put_character_sequenceB7v160006IcNS_11char_traitsIcEEEERNS_13basic_ostreamIT_T0_EES7_PKS4_m, symObjAddr: 0x211C, symBinAddr: 0x100003C64, symSize: 0x1F4 }
  - { offsetInCU: 0xA49B, offset: 0xA49B, size: 0x8, addend: 0x0, symName: __ZNSt3__1lsB7v160006INS_11char_traitsIcEEEERNS_13basic_ostreamIcT_EES6_PKc, symObjAddr: 0x5B0, symBinAddr: 0x1000020F8, symSize: 0x48 }
  - { offsetInCU: 0xA4E1, offset: 0xA4E1, size: 0x8, addend: 0x0, symName: __ZNSt3__1lsB7v160006IcNS_11char_traitsIcEENS_9allocatorIcEEEERNS_13basic_ostreamIT_T0_EES9_RKNS_12basic_stringIS6_S7_T1_EE, symObjAddr: 0x1A78, symBinAddr: 0x1000035C0, symSize: 0x4C }
  - { offsetInCU: 0xAE3B, offset: 0xAE3B, size: 0x8, addend: 0x0, symName: __ZNSt3__1lsB7v160006IdcNS_11char_traitsIcEEEERNS_13basic_ostreamIT0_T1_EES7_RKNS_7complexIT_EE, symObjAddr: 0x1C14, symBinAddr: 0x10000375C, symSize: 0x22C }
  - { offsetInCU: 0xAEA3, offset: 0xAEA3, size: 0x8, addend: 0x0, symName: __ZNSt3__13maxB7v160006IlEERKT_S3_S3_, symObjAddr: 0x1EAC, symBinAddr: 0x1000039F4, symSize: 0x2C }
  - { offsetInCU: 0xAEF1, offset: 0xAEF1, size: 0x8, addend: 0x0, symName: __ZNSt3__116__pad_and_outputB7v160006IcNS_11char_traitsIcEEEENS_19ostreambuf_iteratorIT_T0_EES6_PKS4_S8_S8_RNS_8ios_baseES4_, symObjAddr: 0x23A8, symBinAddr: 0x100003EF0, symSize: 0x248 }
  - { offsetInCU: 0xAFC0, offset: 0xAFC0, size: 0x8, addend: 0x0, symName: __ZNSt3__119__debug_db_insert_cB7v160006INS_12basic_stringIcNS_11char_traitsIcEENS_9allocatorIcEEEEEEvPT_, symObjAddr: 0x2794, symBinAddr: 0x1000042DC, symSize: 0x10 }
  - { offsetInCU: 0xAFF1, offset: 0xAFF1, size: 0x8, addend: 0x0, symName: __ZNSt3__112__to_addressB7v160006IKcEEPT_S3_, symObjAddr: 0x2938, symBinAddr: 0x100004480, symSize: 0x14 }
  - { offsetInCU: 0xB026, offset: 0xB026, size: 0x8, addend: 0x0, symName: __ZNSt3__130__libcpp_is_constant_evaluatedB7v160006Ev, symObjAddr: 0x2A64, symBinAddr: 0x1000045AC, symSize: 0xC }
  - { offsetInCU: 0xB076, offset: 0xB076, size: 0x8, addend: 0x0, symName: __ZNSt3__117__libcpp_allocateB7v160006Emm, symObjAddr: 0x323C, symBinAddr: 0x100004D84, symSize: 0x28 }
  - { offsetInCU: 0xB0B3, offset: 0xB0B3, size: 0x8, addend: 0x0, symName: __ZNSt3__121__libcpp_operator_newB7v160006IJmEEEPvDpT_, symObjAddr: 0x3278, symBinAddr: 0x100004DC0, symSize: 0x24 }
  - { offsetInCU: 0xB216, offset: 0xB216, size: 0x8, addend: 0x0, symName: __ZNSt3__1lsB7v160006INS_11char_traitsIcEEEERNS_13basic_ostreamIcT_EES6_c, symObjAddr: 0x3524, symBinAddr: 0x10000506C, symSize: 0x34 }
  - { offsetInCU: 0xB267, offset: 0xB267, size: 0x8, addend: 0x0, symName: __ZNSt3__13maxB7v160006IlNS_6__lessIllEEEERKT_S5_S5_T0_, symObjAddr: 0x38A8, symBinAddr: 0x1000053F0, symSize: 0x54 }
  - { offsetInCU: 0xB2FC, offset: 0xB2FC, size: 0x8, addend: 0x0, symName: __ZNSt3__19use_facetB7v160006INS_5ctypeIcEEEERKT_RKNS_6localeE, symObjAddr: 0x3ACC, symBinAddr: 0x100005614, symSize: 0x2C }
  - { offsetInCU: 0xB7CB, offset: 0xB7CB, size: 0x8, addend: 0x0, symName: __ZNSt3__118__constexpr_strlenB7v160006EPKc, symObjAddr: 0x3BD8, symBinAddr: 0x100005720, symSize: 0x24 }
  - { offsetInCU: 0xB858, offset: 0xB858, size: 0x8, addend: 0x0, symName: __ZSt28__throw_bad_array_new_lengthB7v160006v, symObjAddr: 0x3208, symBinAddr: 0x100004D50, symSize: 0x34 }
  - { offsetInCU: 0xE2CA, offset: 0xE2CA, size: 0x8, addend: 0x0, symName: __ZN5Eigen8symbolic10SymbolExprINS_8internal17symbolic_last_tagEEC1Ev, symObjAddr: 0x0, symBinAddr: 0x100001B48, symSize: 0x2C }
  - { offsetInCU: 0xE2F4, offset: 0xE2F4, size: 0x8, addend: 0x0, symName: __ZNK5Eigen8symbolic8BaseExprINS0_10SymbolExprINS_8internal17symbolic_last_tagEEEEplILi1EEENS0_7AddExprIS5_NS0_9ValueExprINS3_8FixedIntIXT_EEEEEEESB_, symObjAddr: 0x2C, symBinAddr: 0x100001B74, symSize: 0x48 }
  - { offsetInCU: 0xE32F, offset: 0xE32F, size: 0x8, addend: 0x0, symName: __ZN5Eigen8internal5all_tC1Ev, symObjAddr: 0x94, symBinAddr: 0x100001BDC, symSize: 0x2C }
  - { offsetInCU: 0xE359, offset: 0xE359, size: 0x8, addend: 0x0, symName: _main, symObjAddr: 0xC0, symBinAddr: 0x100001C08, symSize: 0x248 }
  - { offsetInCU: 0xE387, offset: 0xE387, size: 0x8, addend: 0x0, symName: __ZN5Eigen6MatrixINSt3__17complexIdEELin1ELin1ELi0ELin1ELin1EEC1IiiEERKT_RKT0_, symObjAddr: 0x308, symBinAddr: 0x100001E50, symSize: 0x3C }
  - { offsetInCU: 0xE3E1, offset: 0xE3E1, size: 0x8, addend: 0x0, symName: __ZN5Eigen9DenseBaseINS_6MatrixINSt3__17complexIdEELin1ELin1ELi0ELin1ELin1EEEElsERKS4_, symObjAddr: 0x344, symBinAddr: 0x100001E8C, symSize: 0x40 }
  - { offsetInCU: 0xE418, offset: 0xE418, size: 0x8, addend: 0x0, symName: __ZNSt3__17complexIdEC1B7v160006Edd, symObjAddr: 0x384, symBinAddr: 0x100001ECC, symSize: 0x3C }
  - { offsetInCU: 0xE460, offset: 0xE460, size: 0x8, addend: 0x0, symName: __ZN5Eigen16CommaInitializerINS_6MatrixINSt3__17complexIdEELin1ELin1ELi0ELin1ELin1EEEEcmERKS4_, symObjAddr: 0x3C0, symBinAddr: 0x100001F08, symSize: 0x1B8 }
  - { offsetInCU: 0xE494, offset: 0xE494, size: 0x8, addend: 0x0, symName: __ZN5Eigen16CommaInitializerINS_6MatrixINSt3__17complexIdEELin1ELin1ELi0ELin1ELin1EEEED1Ev, symObjAddr: 0x578, symBinAddr: 0x1000020C0, symSize: 0x2C }
  - { offsetInCU: 0xE4BE, offset: 0xE4BE, size: 0x8, addend: 0x0, symName: __ZNK5Eigen10MatrixBaseINS_6MatrixINSt3__17complexIdEELin1ELin1ELi0ELin1ELin1EEEE11squaredNormEv, symObjAddr: 0x838, symBinAddr: 0x100002380, symSize: 0x40 }
  - { offsetInCU: 0xE4E6, offset: 0xE4E6, size: 0x8, addend: 0x0, symName: __ZN5Eigen6MatrixINSt3__17complexIdEELin1ELin1ELi0ELin1ELin1EED1Ev, symObjAddr: 0x878, symBinAddr: 0x1000023C0, symSize: 0x2C }
  - { offsetInCU: 0xE512, offset: 0xE512, size: 0x8, addend: 0x0, symName: __ZN5Eigen8internal5all_tC2Ev, symObjAddr: 0x8A4, symBinAddr: 0x1000023EC, symSize: 0x14 }
  - { offsetInCU: 0xE53C, offset: 0xE53C, size: 0x8, addend: 0x0, symName: __ZNSt3__17complexIdEC2B7v160006Edd, symObjAddr: 0x8B8, symBinAddr: 0x100002400, symSize: 0x2C }
  - { offsetInCU: 0xE584, offset: 0xE584, size: 0x8, addend: 0x0, symName: __ZN5Eigen6MatrixINSt3__17complexIdEELin1ELin1ELi0ELin1ELin1EED2Ev, symObjAddr: 0x8E4, symBinAddr: 0x10000242C, symSize: 0x2C }
  - { offsetInCU: 0xE5B0, offset: 0xE5B0, size: 0x8, addend: 0x0, symName: __ZN5Eigen15PlainObjectBaseINS_6MatrixINSt3__17complexIdEELin1ELin1ELi0ELin1ELin1EEEED2Ev, symObjAddr: 0x910, symBinAddr: 0x100002458, symSize: 0x2C }
  - { offsetInCU: 0xE5DC, offset: 0xE5DC, size: 0x8, addend: 0x0, symName: __ZN5Eigen12DenseStorageINSt3__17complexIdEELin1ELin1ELin1ELi0EED1Ev, symObjAddr: 0x93C, symBinAddr: 0x100002484, symSize: 0x2C }
  - { offsetInCU: 0xE606, offset: 0xE606, size: 0x8, addend: 0x0, symName: __ZN5Eigen12DenseStorageINSt3__17complexIdEELin1ELin1ELin1ELi0EED2Ev, symObjAddr: 0x968, symBinAddr: 0x1000024B0, symSize: 0x3C }
  - { offsetInCU: 0xE630, offset: 0xE630, size: 0x8, addend: 0x0, symName: __ZN5Eigen8symbolic10SymbolExprINS_8internal17symbolic_last_tagEEC2Ev, symObjAddr: 0xA14, symBinAddr: 0x10000255C, symSize: 0x14 }
  - { offsetInCU: 0xE65A, offset: 0xE65A, size: 0x8, addend: 0x0, symName: __ZN5Eigen8internal8FixedIntILi1EEC1Ev, symObjAddr: 0xA28, symBinAddr: 0x100002570, symSize: 0x2C }
  - { offsetInCU: 0xE684, offset: 0xE684, size: 0x8, addend: 0x0, symName: __ZN5Eigen8internal8FixedIntILi1EEC2Ev, symObjAddr: 0xA54, symBinAddr: 0x10000259C, symSize: 0x14 }
  - { offsetInCU: 0xE6AE, offset: 0xE6AE, size: 0x8, addend: 0x0, symName: __ZNK5Eigen8symbolic8BaseExprINS0_10SymbolExprINS_8internal17symbolic_last_tagEEEE7derivedEv, symObjAddr: 0xA68, symBinAddr: 0x1000025B0, symSize: 0x14 }
  - { offsetInCU: 0xE6D4, offset: 0xE6D4, size: 0x8, addend: 0x0, symName: __ZN5Eigen8symbolic9ValueExprINS_8internal8FixedIntILi1EEEEC1Ev, symObjAddr: 0xA7C, symBinAddr: 0x1000025C4, symSize: 0x2C }
  - { offsetInCU: 0xE6FE, offset: 0xE6FE, size: 0x8, addend: 0x0, symName: __ZN5Eigen8symbolic7AddExprINS0_10SymbolExprINS_8internal17symbolic_last_tagEEENS0_9ValueExprINS3_8FixedIntILi1EEEEEEC1ERKS5_RKS9_, symObjAddr: 0xAA8, symBinAddr: 0x1000025F0, symSize: 0x3C }
  - { offsetInCU: 0xE744, offset: 0xE744, size: 0x8, addend: 0x0, symName: __ZN5Eigen8symbolic9ValueExprINS_8internal8FixedIntILi1EEEEC2Ev, symObjAddr: 0xAE4, symBinAddr: 0x10000262C, symSize: 0x14 }
  - { offsetInCU: 0xE76E, offset: 0xE76E, size: 0x8, addend: 0x0, symName: __ZN5Eigen8symbolic7AddExprINS0_10SymbolExprINS_8internal17symbolic_last_tagEEENS0_9ValueExprINS3_8FixedIntILi1EEEEEEC2ERKS5_RKS9_, symObjAddr: 0xAF8, symBinAddr: 0x100002640, symSize: 0x1C }
  - { offsetInCU: 0xE7B4, offset: 0xE7B4, size: 0x8, addend: 0x0, symName: __ZN5Eigen6MatrixINSt3__17complexIdEELin1ELin1ELi0ELin1ELin1EEC2IiiEERKT_RKT0_, symObjAddr: 0xB14, symBinAddr: 0x10000265C, symSize: 0x88 }
  - { offsetInCU: 0xE80E, offset: 0xE80E, size: 0x8, addend: 0x0, symName: __ZN5Eigen15PlainObjectBaseINS_6MatrixINSt3__17complexIdEELin1ELin1ELi0ELin1ELin1EEEEC2Ev, symObjAddr: 0xB9C, symBinAddr: 0x1000026E4, symSize: 0x34 }
  - { offsetInCU: 0xE838, offset: 0xE838, size: 0x8, addend: 0x0, symName: __ZN5Eigen15PlainObjectBaseINS_6MatrixINSt3__17complexIdEELin1ELin1ELi0ELin1ELin1EEEE22_check_template_paramsEv, symObjAddr: 0xBD0, symBinAddr: 0x100002718, symSize: 0x4 }
  - { offsetInCU: 0xE851, offset: 0xE851, size: 0x8, addend: 0x0, symName: __ZN5Eigen15PlainObjectBaseINS_6MatrixINSt3__17complexIdEELin1ELin1ELi0ELin1ELin1EEEE6_init2IiiEEvllPNS_8internal9enable_ifILb1ET_E4typeE, symObjAddr: 0xBD4, symBinAddr: 0x10000271C, symSize: 0x44 }
  - { offsetInCU: 0xE8D1, offset: 0xE8D1, size: 0x8, addend: 0x0, symName: __ZN5Eigen10MatrixBaseINS_6MatrixINSt3__17complexIdEELin1ELin1ELi0ELin1ELin1EEEEC2Ev, symObjAddr: 0xC18, symBinAddr: 0x100002760, symSize: 0x2C }
  - { offsetInCU: 0xE8FB, offset: 0xE8FB, size: 0x8, addend: 0x0, symName: __ZN5Eigen12DenseStorageINSt3__17complexIdEELin1ELin1ELin1ELi0EEC1Ev, symObjAddr: 0xC44, symBinAddr: 0x10000278C, symSize: 0x2C }
  - { offsetInCU: 0xE925, offset: 0xE925, size: 0x8, addend: 0x0, symName: __ZN5Eigen9DenseBaseINS_6MatrixINSt3__17complexIdEELin1ELin1ELi0ELin1ELin1EEEEC2Ev, symObjAddr: 0xC70, symBinAddr: 0x1000027B8, symSize: 0x14 }
  - { offsetInCU: 0xE94F, offset: 0xE94F, size: 0x8, addend: 0x0, symName: __ZN5Eigen12DenseStorageINSt3__17complexIdEELin1ELin1ELin1ELi0EEC2Ev, symObjAddr: 0xC84, symBinAddr: 0x1000027CC, symSize: 0x20 }
  - { offsetInCU: 0xE9BA, offset: 0xE9BA, size: 0x8, addend: 0x0, symName: __ZN5Eigen15PlainObjectBaseINS_6MatrixINSt3__17complexIdEELin1ELin1ELi0ELin1ELin1EEEE6resizeEll, symObjAddr: 0xCA4, symBinAddr: 0x1000027EC, symSize: 0x14C }
  - { offsetInCU: 0xEA36, offset: 0xEA36, size: 0x8, addend: 0x0, symName: __ZN5Eigen12DenseStorageINSt3__17complexIdEELin1ELin1ELin1ELi0EE6resizeElll, symObjAddr: 0xDF0, symBinAddr: 0x100002938, symSize: 0xB4 }
  - { offsetInCU: 0xEA89, offset: 0xEA89, size: 0x8, addend: 0x0, symName: __ZN5Eigen16CommaInitializerINS_6MatrixINSt3__17complexIdEELin1ELin1ELi0ELin1ELin1EEEEC1ERS5_RKS4_, symObjAddr: 0x1060, symBinAddr: 0x100002BA8, symSize: 0x3C }
  - { offsetInCU: 0xEACF, offset: 0xEACF, size: 0x8, addend: 0x0, symName: __ZN5Eigen16CommaInitializerINS_6MatrixINSt3__17complexIdEELin1ELin1ELi0ELin1ELin1EEEEC2ERS5_RKS4_, symObjAddr: 0x109C, symBinAddr: 0x100002BE4, symSize: 0xF8 }
  - { offsetInCU: 0xEB15, offset: 0xEB15, size: 0x8, addend: 0x0, symName: __ZNK5Eigen15PlainObjectBaseINS_6MatrixINSt3__17complexIdEELin1ELin1ELi0ELin1ELin1EEEE4rowsEv, symObjAddr: 0x1194, symBinAddr: 0x100002CDC, symSize: 0x24 }
  - { offsetInCU: 0xEB3B, offset: 0xEB3B, size: 0x8, addend: 0x0, symName: __ZNK5Eigen15PlainObjectBaseINS_6MatrixINSt3__17complexIdEELin1ELin1ELi0ELin1ELin1EEEE4colsEv, symObjAddr: 0x11B8, symBinAddr: 0x100002D00, symSize: 0x24 }
  - { offsetInCU: 0xEB61, offset: 0xEB61, size: 0x8, addend: 0x0, symName: __ZN5Eigen15PlainObjectBaseINS_6MatrixINSt3__17complexIdEELin1ELin1ELi0ELin1ELin1EEEE8coeffRefEll, symObjAddr: 0x11DC, symBinAddr: 0x100002D24, symSize: 0x6C }
  - { offsetInCU: 0xEBA3, offset: 0xEBA3, size: 0x8, addend: 0x0, symName: __ZNK5Eigen12DenseStorageINSt3__17complexIdEELin1ELin1ELin1ELi0EE4rowsEv, symObjAddr: 0x1248, symBinAddr: 0x100002D90, symSize: 0x18 }
  - { offsetInCU: 0xEBC9, offset: 0xEBC9, size: 0x8, addend: 0x0, symName: __ZNK5Eigen12DenseStorageINSt3__17complexIdEELin1ELin1ELin1ELi0EE4colsEv, symObjAddr: 0x1260, symBinAddr: 0x100002DA8, symSize: 0x18 }
  - { offsetInCU: 0xEBEF, offset: 0xEBEF, size: 0x8, addend: 0x0, symName: __ZN5Eigen12DenseStorageINSt3__17complexIdEELin1ELin1ELin1ELi0EE4dataEv, symObjAddr: 0x1278, symBinAddr: 0x100002DC0, symSize: 0x18 }
  - { offsetInCU: 0xEC15, offset: 0xEC15, size: 0x8, addend: 0x0, symName: __ZN5Eigen16CommaInitializerINS_6MatrixINSt3__17complexIdEELin1ELin1ELi0ELin1ELin1EEEED2Ev, symObjAddr: 0x1290, symBinAddr: 0x100002DD8, symSize: 0x2C }
  - { offsetInCU: 0xEC3F, offset: 0xEC3F, size: 0x8, addend: 0x0, symName: __ZN5Eigen16CommaInitializerINS_6MatrixINSt3__17complexIdEELin1ELin1ELi0ELin1ELin1EEEE8finishedEv, symObjAddr: 0x12BC, symBinAddr: 0x100002E04, symSize: 0xE8 }
  - { offsetInCU: 0xEC65, offset: 0xEC65, size: 0x8, addend: 0x0, symName: __ZNK5Eigen9DenseBaseINS_6MatrixINSt3__17complexIdEELin1ELin1ELi0ELin1ELin1EEEE4evalEv, symObjAddr: 0x1928, symBinAddr: 0x100003470, symSize: 0x24 }
  - { offsetInCU: 0xEC90, offset: 0xEC90, size: 0x8, addend: 0x0, symName: __ZNSt3__112basic_stringIcNS_11char_traitsIcEENS_9allocatorIcEEEC1B7v160006IDnEEPKc, symObjAddr: 0x194C, symBinAddr: 0x100003494, symSize: 0x34 }
  - { offsetInCU: 0xECCE, offset: 0xECCE, size: 0x8, addend: 0x0, symName: __ZN5Eigen8IOFormatC1EiiRKNSt3__112basic_stringIcNS1_11char_traitsIcEENS1_9allocatorIcEEEES9_S9_S9_S9_S9_c, symObjAddr: 0x1980, symBinAddr: 0x1000034C8, symSize: 0x88 }
  - { offsetInCU: 0xED76, offset: 0xED76, size: 0x8, addend: 0x0, symName: __ZN5Eigen8IOFormatD1Ev, symObjAddr: 0x1A08, symBinAddr: 0x100003550, symSize: 0x2C }
  - { offsetInCU: 0xEDA2, offset: 0xEDA2, size: 0x8, addend: 0x0, symName: __ZNK5Eigen9EigenBaseINS_6MatrixINSt3__17complexIdEELin1ELin1ELi0ELin1ELin1EEEE4sizeEv, symObjAddr: 0x1A34, symBinAddr: 0x10000357C, symSize: 0x44 }
  - { offsetInCU: 0xEDC8, offset: 0xEDC8, size: 0x8, addend: 0x0, symName: __ZN5Eigen8internal25significant_decimals_implINSt3__17complexIdEEE3runEv, symObjAddr: 0x1AC4, symBinAddr: 0x10000360C, symSize: 0x14 }
  - { offsetInCU: 0xEDDC, offset: 0xEDDC, size: 0x8, addend: 0x0, symName: __ZNSt3__18ios_base9precisionB7v160006El, symObjAddr: 0x1AD8, symBinAddr: 0x100003620, symSize: 0x2C }
  - { offsetInCU: 0xEEF5, offset: 0xEEF5, size: 0x8, addend: 0x0, symName: __ZNSt3__118basic_stringstreamIcNS_11char_traitsIcEENS_9allocatorIcEEEC1B7v160006Ev, symObjAddr: 0x1B04, symBinAddr: 0x10000364C, symSize: 0x110 }
  - { offsetInCU: 0xEF1F, offset: 0xEF1F, size: 0x8, addend: 0x0, symName: __ZNK5Eigen15PlainObjectBaseINS_6MatrixINSt3__17complexIdEELin1ELin1ELi0ELin1ELin1EEEE5coeffEll, symObjAddr: 0x1E40, symBinAddr: 0x100003988, symSize: 0x6C }
  - { offsetInCU: 0xEF61, offset: 0xEF61, size: 0x8, addend: 0x0, symName: __ZNKSt3__118basic_stringstreamIcNS_11char_traitsIcEENS_9allocatorIcEEE3strB7v160006Ev, symObjAddr: 0x1ED8, symBinAddr: 0x100003A20, symSize: 0x30 }
  - { offsetInCU: 0xEF87, offset: 0xEF87, size: 0x8, addend: 0x0, symName: __ZNKSt3__112basic_stringIcNS_11char_traitsIcEENS_9allocatorIcEEE6lengthB7v160006Ev, symObjAddr: 0x1F08, symBinAddr: 0x100003A50, symSize: 0x24 }
  - { offsetInCU: 0xEFB2, offset: 0xEFB2, size: 0x8, addend: 0x0, symName: __ZNSt3__118basic_stringstreamIcNS_11char_traitsIcEENS_9allocatorIcEEED1Ev, symObjAddr: 0x1F2C, symBinAddr: 0x100003A74, symSize: 0x70 }
  - { offsetInCU: 0xEFDF, offset: 0xEFDF, size: 0x8, addend: 0x0, symName: __ZNKSt3__18ios_base5widthB7v160006Ev, symObjAddr: 0x1F9C, symBinAddr: 0x100003AE4, symSize: 0x18 }
  - { offsetInCU: 0xF007, offset: 0xF007, size: 0x8, addend: 0x0, symName: __ZNKSt3__19basic_iosIcNS_11char_traitsIcEEE4fillB7v160006Ev, symObjAddr: 0x1FB4, symBinAddr: 0x100003AFC, symSize: 0x64 }
  - { offsetInCU: 0xF02F, offset: 0xF02F, size: 0x8, addend: 0x0, symName: __ZNSt3__19basic_iosIcNS_11char_traitsIcEEE4fillB7v160006Ec, symObjAddr: 0x2018, symBinAddr: 0x100003B60, symSize: 0x74 }
  - { offsetInCU: 0xF075, offset: 0xF075, size: 0x8, addend: 0x0, symName: __ZNSt3__18ios_base5widthB7v160006El, symObjAddr: 0x208C, symBinAddr: 0x100003BD4, symSize: 0x2C }
  - { offsetInCU: 0xF0BB, offset: 0xF0BB, size: 0x8, addend: 0x0, symName: __ZNK5Eigen9EigenBaseINS_6MatrixINSt3__17complexIdEELin1ELin1ELi0ELin1ELin1EEEE4rowsEv, symObjAddr: 0x20B8, symBinAddr: 0x100003C00, symSize: 0x28 }
  - { offsetInCU: 0xF0E1, offset: 0xF0E1, size: 0x8, addend: 0x0, symName: __ZNK5Eigen9EigenBaseINS_6MatrixINSt3__17complexIdEELin1ELin1ELi0ELin1ELin1EEEE4colsEv, symObjAddr: 0x20E0, symBinAddr: 0x100003C28, symSize: 0x28 }
  - { offsetInCU: 0xF107, offset: 0xF107, size: 0x8, addend: 0x0, symName: __ZNK5Eigen9EigenBaseINS_6MatrixINSt3__17complexIdEELin1ELin1ELi0ELin1ELin1EEEE7derivedEv, symObjAddr: 0x2108, symBinAddr: 0x100003C50, symSize: 0x14 }
  - { offsetInCU: 0xF12D, offset: 0xF12D, size: 0x8, addend: 0x0, symName: __ZNKSt3__112basic_stringIcNS_11char_traitsIcEENS_9allocatorIcEEE4dataB7v160006Ev, symObjAddr: 0x2310, symBinAddr: 0x100003E58, symSize: 0x28 }
  - { offsetInCU: 0xF153, offset: 0xF153, size: 0x8, addend: 0x0, symName: __ZNKSt3__112basic_stringIcNS_11char_traitsIcEENS_9allocatorIcEEE4sizeB7v160006Ev, symObjAddr: 0x2338, symBinAddr: 0x100003E80, symSize: 0x54 }
  - { offsetInCU: 0xF197, offset: 0xF197, size: 0x8, addend: 0x0, symName: __ZNKSt3__113basic_ostreamIcNS_11char_traitsIcEEE6sentrycvbB7v160006Ev, symObjAddr: 0x238C, symBinAddr: 0x100003ED4, symSize: 0x1C }
  - { offsetInCU: 0xF1BD, offset: 0xF1BD, size: 0x8, addend: 0x0, symName: __ZNSt3__119ostreambuf_iteratorIcNS_11char_traitsIcEEEC1B7v160006ERNS_13basic_ostreamIcS2_EE, symObjAddr: 0x25F0, symBinAddr: 0x100004138, symSize: 0x34 }
  - { offsetInCU: 0xF1F5, offset: 0xF1F5, size: 0x8, addend: 0x0, symName: __ZNKSt3__18ios_base5flagsB7v160006Ev, symObjAddr: 0x2624, symBinAddr: 0x10000416C, symSize: 0x18 }
  - { offsetInCU: 0xF21D, offset: 0xF21D, size: 0x8, addend: 0x0, symName: __ZNKSt3__119ostreambuf_iteratorIcNS_11char_traitsIcEEE6failedB7v160006Ev, symObjAddr: 0x263C, symBinAddr: 0x100004184, symSize: 0x24 }
  - { offsetInCU: 0xF243, offset: 0xF243, size: 0x8, addend: 0x0, symName: __ZNSt3__19basic_iosIcNS_11char_traitsIcEEE8setstateB7v160006Ej, symObjAddr: 0x2660, symBinAddr: 0x1000041A8, symSize: 0x2C }
  - { offsetInCU: 0xF278, offset: 0xF278, size: 0x8, addend: 0x0, symName: __ZNSt3__115basic_streambufIcNS_11char_traitsIcEEE5sputnB7v160006EPKcl, symObjAddr: 0x268C, symBinAddr: 0x1000041D4, symSize: 0x3C }
  - { offsetInCU: 0xF2BA, offset: 0xF2BA, size: 0x8, addend: 0x0, symName: __ZNSt3__112basic_stringIcNS_11char_traitsIcEENS_9allocatorIcEEEC1B7v160006Emc, symObjAddr: 0x26C8, symBinAddr: 0x100004210, symSize: 0x3C }
  - { offsetInCU: 0xF302, offset: 0xF302, size: 0x8, addend: 0x0, symName: __ZNSt3__112basic_stringIcNS_11char_traitsIcEENS_9allocatorIcEEEC2B7v160006Emc, symObjAddr: 0x2704, symBinAddr: 0x10000424C, symSize: 0x54 }
  - { offsetInCU: 0xF34F, offset: 0xF34F, size: 0x8, addend: 0x0, symName: __ZNSt3__117__compressed_pairINS_12basic_stringIcNS_11char_traitsIcEENS_9allocatorIcEEE5__repES5_EC1B7v160006INS_18__default_init_tagESA_EEOT_OT0_, symObjAddr: 0x2758, symBinAddr: 0x1000042A0, symSize: 0x3C }
  - { offsetInCU: 0xF3A7, offset: 0xF3A7, size: 0x8, addend: 0x0, symName: __ZNSt3__117__compressed_pairINS_12basic_stringIcNS_11char_traitsIcEENS_9allocatorIcEEE5__repES5_EC2B7v160006INS_18__default_init_tagESA_EEOT_OT0_, symObjAddr: 0x27A4, symBinAddr: 0x1000042EC, symSize: 0x3C }
  - { offsetInCU: 0xF3FF, offset: 0xF3FF, size: 0x8, addend: 0x0, symName: __ZNSt3__122__compressed_pair_elemINS_12basic_stringIcNS_11char_traitsIcEENS_9allocatorIcEEE5__repELi0ELb0EEC2B7v160006ENS_18__default_init_tagE, symObjAddr: 0x27E0, symBinAddr: 0x100004328, symSize: 0x14 }
  - { offsetInCU: 0xF434, offset: 0xF434, size: 0x8, addend: 0x0, symName: __ZNSt3__122__compressed_pair_elemINS_9allocatorIcEELi1ELb1EEC2B7v160006ENS_18__default_init_tagE, symObjAddr: 0x27F4, symBinAddr: 0x10000433C, symSize: 0x2C }
  - { offsetInCU: 0xF469, offset: 0xF469, size: 0x8, addend: 0x0, symName: __ZNSt3__19allocatorIcEC2B7v160006Ev, symObjAddr: 0x2820, symBinAddr: 0x100004368, symSize: 0x2C }
  - { offsetInCU: 0xF493, offset: 0xF493, size: 0x8, addend: 0x0, symName: __ZNSt3__116__non_trivial_ifILb1ENS_9allocatorIcEEEC2B7v160006Ev, symObjAddr: 0x284C, symBinAddr: 0x100004394, symSize: 0x14 }
  - { offsetInCU: 0xF4BD, offset: 0xF4BD, size: 0x8, addend: 0x0, symName: __ZNSt3__119ostreambuf_iteratorIcNS_11char_traitsIcEEEC2B7v160006ERNS_13basic_ostreamIcS2_EE, symObjAddr: 0x2860, symBinAddr: 0x1000043A8, symSize: 0x68 }
  - { offsetInCU: 0xF4F5, offset: 0xF4F5, size: 0x8, addend: 0x0, symName: __ZNKSt3__19basic_iosIcNS_11char_traitsIcEEE5rdbufB7v160006Ev, symObjAddr: 0x28C8, symBinAddr: 0x100004410, symSize: 0x24 }
  - { offsetInCU: 0xF51D, offset: 0xF51D, size: 0x8, addend: 0x0, symName: __ZNKSt3__18ios_base5rdbufB7v160006Ev, symObjAddr: 0x28EC, symBinAddr: 0x100004434, symSize: 0x18 }
  - { offsetInCU: 0xF543, offset: 0xF543, size: 0x8, addend: 0x0, symName: __ZNSt3__18ios_base8setstateB7v160006Ej, symObjAddr: 0x2904, symBinAddr: 0x10000444C, symSize: 0x34 }
  - { offsetInCU: 0xF57A, offset: 0xF57A, size: 0x8, addend: 0x0, symName: __ZNKSt3__112basic_stringIcNS_11char_traitsIcEENS_9allocatorIcEEE13__get_pointerB7v160006Ev, symObjAddr: 0x294C, symBinAddr: 0x100004494, symSize: 0x54 }
  - { offsetInCU: 0xF5A0, offset: 0xF5A0, size: 0x8, addend: 0x0, symName: __ZNKSt3__112basic_stringIcNS_11char_traitsIcEENS_9allocatorIcEEE9__is_longB7v160006Ev, symObjAddr: 0x29A0, symBinAddr: 0x1000044E8, symSize: 0x74 }
  - { offsetInCU: 0xF5C6, offset: 0xF5C6, size: 0x8, addend: 0x0, symName: __ZNKSt3__112basic_stringIcNS_11char_traitsIcEENS_9allocatorIcEEE18__get_long_pointerB7v160006Ev, symObjAddr: 0x2A14, symBinAddr: 0x10000455C, symSize: 0x28 }
  - { offsetInCU: 0xF5EC, offset: 0xF5EC, size: 0x8, addend: 0x0, symName: __ZNKSt3__112basic_stringIcNS_11char_traitsIcEENS_9allocatorIcEEE19__get_short_pointerB7v160006Ev, symObjAddr: 0x2A3C, symBinAddr: 0x100004584, symSize: 0x28 }
  - { offsetInCU: 0xF612, offset: 0xF612, size: 0x8, addend: 0x0, symName: __ZNKSt3__117__compressed_pairINS_12basic_stringIcNS_11char_traitsIcEENS_9allocatorIcEEE5__repES5_E5firstB7v160006Ev, symObjAddr: 0x2A70, symBinAddr: 0x1000045B8, symSize: 0x24 }
  - { offsetInCU: 0xF638, offset: 0xF638, size: 0x8, addend: 0x0, symName: __ZNKSt3__122__compressed_pair_elemINS_12basic_stringIcNS_11char_traitsIcEENS_9allocatorIcEEE5__repELi0ELb0EE5__getB7v160006Ev, symObjAddr: 0x2A94, symBinAddr: 0x1000045DC, symSize: 0x14 }
  - { offsetInCU: 0xF65E, offset: 0xF65E, size: 0x8, addend: 0x0, symName: __ZNSt3__114pointer_traitsIPKcE10pointer_toB7v160006ERS1_, symObjAddr: 0x2AA8, symBinAddr: 0x1000045F0, symSize: 0x14 }
  - { offsetInCU: 0xF681, offset: 0xF681, size: 0x8, addend: 0x0, symName: __ZNKSt3__112basic_stringIcNS_11char_traitsIcEENS_9allocatorIcEEE15__get_long_sizeB7v160006Ev, symObjAddr: 0x2ABC, symBinAddr: 0x100004604, symSize: 0x28 }
  - { offsetInCU: 0xF6A7, offset: 0xF6A7, size: 0x8, addend: 0x0, symName: __ZNKSt3__112basic_stringIcNS_11char_traitsIcEENS_9allocatorIcEEE16__get_short_sizeB7v160006Ev, symObjAddr: 0x2AE4, symBinAddr: 0x10000462C, symSize: 0x34 }
  - { offsetInCU: 0xF6CD, offset: 0xF6CD, size: 0x8, addend: 0x0, symName: __ZN5Eigen9NumTraitsINSt3__17complexIdEEE8digits10Ev, symObjAddr: 0x2B18, symBinAddr: 0x100004660, symSize: 0x14 }
  - { offsetInCU: 0xF6E1, offset: 0xF6E1, size: 0x8, addend: 0x0, symName: __ZN5Eigen16GenericNumTraitsIdE8digits10Ev, symObjAddr: 0x2B2C, symBinAddr: 0x100004674, symSize: 0x14 }
  - { offsetInCU: 0xF6F5, offset: 0xF6F5, size: 0x8, addend: 0x0, symName: __ZN5Eigen8internal21default_digits10_implIdLb1ELb0EE3runEv, symObjAddr: 0x2B40, symBinAddr: 0x100004688, symSize: 0x8 }
  - { offsetInCU: 0xF709, offset: 0xF709, size: 0x8, addend: 0x0, symName: __ZNSt3__19basic_iosIcNS_11char_traitsIcEEEC2B7v160006Ev, symObjAddr: 0x2B48, symBinAddr: 0x100004690, symSize: 0x44 }
  - { offsetInCU: 0xF733, offset: 0xF733, size: 0x8, addend: 0x0, symName: __ZNSt3__114basic_iostreamIcNS_11char_traitsIcEEEC2B7v160006EPNS_15basic_streambufIcS2_EE, symObjAddr: 0x2B8C, symBinAddr: 0x1000046D4, symSize: 0xB4 }
  - { offsetInCU: 0xF779, offset: 0xF779, size: 0x8, addend: 0x0, symName: __ZNSt3__115basic_stringbufIcNS_11char_traitsIcEENS_9allocatorIcEEEC1B7v160006Ej, symObjAddr: 0x2C40, symBinAddr: 0x100004788, symSize: 0x34 }
  - { offsetInCU: 0xF7B1, offset: 0xF7B1, size: 0x8, addend: 0x0, symName: __ZNSt3__18ios_baseC2B7v160006Ev, symObjAddr: 0x2C74, symBinAddr: 0x1000047BC, symSize: 0x24 }
  - { offsetInCU: 0xF7DB, offset: 0xF7DB, size: 0x8, addend: 0x0, symName: __ZNSt3__113basic_istreamIcNS_11char_traitsIcEEEC2B7v160006EPNS_15basic_streambufIcS2_EE, symObjAddr: 0x2C98, symBinAddr: 0x1000047E0, symSize: 0x64 }
  - { offsetInCU: 0xF820, offset: 0xF820, size: 0x8, addend: 0x0, symName: __ZNSt3__113basic_ostreamIcNS_11char_traitsIcEEEC2B7v160006Ev, symObjAddr: 0x2CFC, symBinAddr: 0x100004844, symSize: 0x34 }
  - { offsetInCU: 0xF857, offset: 0xF857, size: 0x8, addend: 0x0, symName: __ZNSt3__19basic_iosIcNS_11char_traitsIcEEE4initB7v160006EPNS_15basic_streambufIcS2_EE, symObjAddr: 0x2D30, symBinAddr: 0x100004878, symSize: 0x44 }
  - { offsetInCU: 0xF88E, offset: 0xF88E, size: 0x8, addend: 0x0, symName: __ZNSt3__111char_traitsIcE3eofEv, symObjAddr: 0x2D74, symBinAddr: 0x1000048BC, symSize: 0x8 }
  - { offsetInCU: 0xF8A2, offset: 0xF8A2, size: 0x8, addend: 0x0, symName: __ZNSt3__115basic_stringbufIcNS_11char_traitsIcEENS_9allocatorIcEEEC2B7v160006Ej, symObjAddr: 0x2D7C, symBinAddr: 0x1000048C4, symSize: 0x90 }
  - { offsetInCU: 0xF8DA, offset: 0xF8DA, size: 0x8, addend: 0x0, symName: __ZNSt3__112basic_stringIcNS_11char_traitsIcEENS_9allocatorIcEEEC1B7v160006Ev, symObjAddr: 0x2E0C, symBinAddr: 0x100004954, symSize: 0x2C }
  - { offsetInCU: 0xF904, offset: 0xF904, size: 0x8, addend: 0x0, symName: __ZNSt3__112basic_stringIcNS_11char_traitsIcEENS_9allocatorIcEEEC2B7v160006Ev, symObjAddr: 0x2E38, symBinAddr: 0x100004980, symSize: 0x44 }
  - { offsetInCU: 0xF92E, offset: 0xF92E, size: 0x8, addend: 0x0, symName: __ZNSt3__112basic_stringIcNS_11char_traitsIcEENS_9allocatorIcEEE14__default_initB7v160006Ev, symObjAddr: 0x2E7C, symBinAddr: 0x1000049C4, symSize: 0xB0 }
  - { offsetInCU: 0xF980, offset: 0xF980, size: 0x8, addend: 0x0, symName: __ZNSt3__117__compressed_pairINS_12basic_stringIcNS_11char_traitsIcEENS_9allocatorIcEEE5__repES5_E5firstB7v160006Ev, symObjAddr: 0x2F2C, symBinAddr: 0x100004A74, symSize: 0x24 }
  - { offsetInCU: 0xF9A6, offset: 0xF9A6, size: 0x8, addend: 0x0, symName: __ZNSt3__112basic_stringIcNS_11char_traitsIcEENS_9allocatorIcEEE11__recommendB7v160006Em, symObjAddr: 0x2F50, symBinAddr: 0x100004A98, symSize: 0x9C }
  - { offsetInCU: 0xF9D9, offset: 0xF9D9, size: 0x8, addend: 0x0, symName: __ZNSt3__116allocator_traitsINS_9allocatorIcEEE8allocateB7v160006ERS2_m, symObjAddr: 0x2FEC, symBinAddr: 0x100004B34, symSize: 0x2C }
  - { offsetInCU: 0xFA0C, offset: 0xFA0C, size: 0x8, addend: 0x0, symName: __ZNSt3__112basic_stringIcNS_11char_traitsIcEENS_9allocatorIcEEE7__allocB7v160006Ev, symObjAddr: 0x3018, symBinAddr: 0x100004B60, symSize: 0x24 }
  - { offsetInCU: 0xFA32, offset: 0xFA32, size: 0x8, addend: 0x0, symName: __ZNSt3__112basic_stringIcNS_11char_traitsIcEENS_9allocatorIcEEE16__begin_lifetimeB7v160006EPcm, symObjAddr: 0x303C, symBinAddr: 0x100004B84, symSize: 0x14 }
  - { offsetInCU: 0xFA65, offset: 0xFA65, size: 0x8, addend: 0x0, symName: __ZNSt3__112basic_stringIcNS_11char_traitsIcEENS_9allocatorIcEEE18__set_long_pointerB7v160006EPc, symObjAddr: 0x3050, symBinAddr: 0x100004B98, symSize: 0x38 }
  - { offsetInCU: 0xFA9A, offset: 0xFA9A, size: 0x8, addend: 0x0, symName: __ZNSt3__112basic_stringIcNS_11char_traitsIcEENS_9allocatorIcEEE14__set_long_capB7v160006Em, symObjAddr: 0x3088, symBinAddr: 0x100004BD0, symSize: 0x70 }
  - { offsetInCU: 0xFACF, offset: 0xFACF, size: 0x8, addend: 0x0, symName: __ZNSt3__112basic_stringIcNS_11char_traitsIcEENS_9allocatorIcEEE15__set_long_sizeB7v160006Em, symObjAddr: 0x30F8, symBinAddr: 0x100004C40, symSize: 0x38 }
  - { offsetInCU: 0xFB04, offset: 0xFB04, size: 0x8, addend: 0x0, symName: __ZNSt3__122__compressed_pair_elemINS_12basic_stringIcNS_11char_traitsIcEENS_9allocatorIcEEE5__repELi0ELb0EE5__getB7v160006Ev, symObjAddr: 0x3130, symBinAddr: 0x100004C78, symSize: 0x14 }
  - { offsetInCU: 0xFB2A, offset: 0xFB2A, size: 0x8, addend: 0x0, symName: __ZNSt3__112basic_stringIcNS_11char_traitsIcEENS_9allocatorIcEEE10__align_itB7v160006ILm16EEEmm, symObjAddr: 0x3144, symBinAddr: 0x100004C8C, symSize: 0x1C }
  - { offsetInCU: 0xFB58, offset: 0xFB58, size: 0x8, addend: 0x0, symName: __ZNSt3__19allocatorIcE8allocateB7v160006Em, symObjAddr: 0x3160, symBinAddr: 0x100004CA8, symSize: 0x84 }
  - { offsetInCU: 0xFB96, offset: 0xFB96, size: 0x8, addend: 0x0, symName: __ZNSt3__116allocator_traitsINS_9allocatorIcEEE8max_sizeB7v160006IS2_vEEmRKS2_, symObjAddr: 0x31E4, symBinAddr: 0x100004D2C, symSize: 0x24 }
  - { offsetInCU: 0xFBC4, offset: 0xFBC4, size: 0x8, addend: 0x0, symName: __ZNKSt3__19allocatorIcE8max_sizeB7v160006Ev, symObjAddr: 0x3264, symBinAddr: 0x100004DAC, symSize: 0x14 }
  - { offsetInCU: 0xFBEA, offset: 0xFBEA, size: 0x8, addend: 0x0, symName: __ZNSt3__117__compressed_pairINS_12basic_stringIcNS_11char_traitsIcEENS_9allocatorIcEEE5__repES5_E6secondB7v160006Ev, symObjAddr: 0x329C, symBinAddr: 0x100004DE4, symSize: 0x24 }
  - { offsetInCU: 0xFC10, offset: 0xFC10, size: 0x8, addend: 0x0, symName: __ZNSt3__122__compressed_pair_elemINS_9allocatorIcEELi1ELb1EE5__getB7v160006Ev, symObjAddr: 0x32C0, symBinAddr: 0x100004E08, symSize: 0x14 }
  - { offsetInCU: 0xFC59, offset: 0xFC59, size: 0x8, addend: 0x0, symName: __ZNSt3__119basic_ostringstreamIcNS_11char_traitsIcEENS_9allocatorIcEEEC1B7v160006Ev, symObjAddr: 0x32D4, symBinAddr: 0x100004E1C, symSize: 0xF8 }
  - { offsetInCU: 0xFC83, offset: 0xFC83, size: 0x8, addend: 0x0, symName: __ZNSt3__18ios_base5flagsB7v160006Ej, symObjAddr: 0x33CC, symBinAddr: 0x100004F14, symSize: 0x2C }
  - { offsetInCU: 0xFCC9, offset: 0xFCC9, size: 0x8, addend: 0x0, symName: __ZNSt3__19basic_iosIcNS_11char_traitsIcEEE5imbueB7v160006ERKNS_6localeE, symObjAddr: 0x33F8, symBinAddr: 0x100004F40, symSize: 0x114 }
  - { offsetInCU: 0xFD10, offset: 0xFD10, size: 0x8, addend: 0x0, symName: __ZNKSt3__18ios_base9precisionB7v160006Ev, symObjAddr: 0x350C, symBinAddr: 0x100005054, symSize: 0x18 }
  - { offsetInCU: 0xFD38, offset: 0xFD38, size: 0x8, addend: 0x0, symName: __ZNKSt3__17complexIdE4realB7v160006Ev, symObjAddr: 0x3558, symBinAddr: 0x1000050A0, symSize: 0x18 }
  - { offsetInCU: 0xFD5E, offset: 0xFD5E, size: 0x8, addend: 0x0, symName: __ZNKSt3__17complexIdE4imagB7v160006Ev, symObjAddr: 0x3570, symBinAddr: 0x1000050B8, symSize: 0x18 }
  - { offsetInCU: 0xFD84, offset: 0xFD84, size: 0x8, addend: 0x0, symName: __ZNKSt3__119basic_ostringstreamIcNS_11char_traitsIcEENS_9allocatorIcEEE3strB7v160006Ev, symObjAddr: 0x3588, symBinAddr: 0x1000050D0, symSize: 0x30 }
  - { offsetInCU: 0xFDAF, offset: 0xFDAF, size: 0x8, addend: 0x0, symName: __ZNSt3__119basic_ostringstreamIcNS_11char_traitsIcEENS_9allocatorIcEEED1Ev, symObjAddr: 0x35B8, symBinAddr: 0x100005100, symSize: 0x70 }
  - { offsetInCU: 0xFDDC, offset: 0xFDDC, size: 0x8, addend: 0x0, symName: __ZNSt3__113basic_ostreamIcNS_11char_traitsIcEEEC2B7v160006EPNS_15basic_streambufIcS2_EE, symObjAddr: 0x3628, symBinAddr: 0x100005170, symSize: 0x60 }
  - { offsetInCU: 0xFE21, offset: 0xFE21, size: 0x8, addend: 0x0, symName: __ZNSt3__115basic_streambufIcNS_11char_traitsIcEEE8pubimbueB7v160006ERKNS_6localeE, symObjAddr: 0x3688, symBinAddr: 0x1000051D0, symSize: 0xA0 }
  - { offsetInCU: 0xFE64, offset: 0xFE64, size: 0x8, addend: 0x0, symName: __ZNSt3__119basic_ostringstreamIcNS_11char_traitsIcEENS_9allocatorIcEEED2Ev, symObjAddr: 0x3728, symBinAddr: 0x100005270, symSize: 0x9C }
  - { offsetInCU: 0xFE9E, offset: 0xFE9E, size: 0x8, addend: 0x0, symName: __ZTv0_n24_NSt3__119basic_ostringstreamIcNS_11char_traitsIcEENS_9allocatorIcEEED1Ev, symObjAddr: 0x37C4, symBinAddr: 0x10000530C, symSize: 0x28 }
  - { offsetInCU: 0xFEBA, offset: 0xFEBA, size: 0x8, addend: 0x0, symName: __ZNSt3__115basic_stringbufIcNS_11char_traitsIcEENS_9allocatorIcEEED1Ev, symObjAddr: 0x37EC, symBinAddr: 0x100005334, symSize: 0x2C }
  - { offsetInCU: 0xFEE7, offset: 0xFEE7, size: 0x8, addend: 0x0, symName: __ZNSt3__115basic_stringbufIcNS_11char_traitsIcEENS_9allocatorIcEEED2Ev, symObjAddr: 0x3818, symBinAddr: 0x100005360, symSize: 0x78 }
  - { offsetInCU: 0xFF14, offset: 0xFF14, size: 0x8, addend: 0x0, symName: __ZNK5Eigen12DenseStorageINSt3__17complexIdEELin1ELin1ELin1ELi0EE4dataEv, symObjAddr: 0x3890, symBinAddr: 0x1000053D8, symSize: 0x18 }
  - { offsetInCU: 0xFF4E, offset: 0xFF4E, size: 0x8, addend: 0x0, symName: __ZNKSt3__16__lessIllEclB7v160006ERKlS3_, symObjAddr: 0x38FC, symBinAddr: 0x100005444, symSize: 0x34 }
  - { offsetInCU: 0xFF90, offset: 0xFF90, size: 0x8, addend: 0x0, symName: __ZNSt3__118basic_stringstreamIcNS_11char_traitsIcEENS_9allocatorIcEEED2Ev, symObjAddr: 0x3930, symBinAddr: 0x100005478, symSize: 0xA4 }
  - { offsetInCU: 0xFFCA, offset: 0xFFCA, size: 0x8, addend: 0x0, symName: __ZThn16_NSt3__118basic_stringstreamIcNS_11char_traitsIcEENS_9allocatorIcEEED1Ev, symObjAddr: 0x39D4, symBinAddr: 0x10000551C, symSize: 0x1C }
  - { offsetInCU: 0xFFE1, offset: 0xFFE1, size: 0x8, addend: 0x0, symName: __ZTv0_n24_NSt3__118basic_stringstreamIcNS_11char_traitsIcEENS_9allocatorIcEEED1Ev, symObjAddr: 0x39F0, symBinAddr: 0x100005538, symSize: 0x28 }
  - { offsetInCU: 0xFFF8, offset: 0xFFF8, size: 0x8, addend: 0x0, symName: __ZNSt3__111char_traitsIcE11eq_int_typeEii, symObjAddr: 0x3A18, symBinAddr: 0x100005560, symSize: 0x28 }
  - { offsetInCU: 0x10029, offset: 0x10029, size: 0x8, addend: 0x0, symName: __ZNKSt3__19basic_iosIcNS_11char_traitsIcEEE5widenB7v160006Ec, symObjAddr: 0x3A40, symBinAddr: 0x100005588, symSize: 0x8C }
  - { offsetInCU: 0x10097, offset: 0x10097, size: 0x8, addend: 0x0, symName: __ZNKSt3__15ctypeIcE5widenB7v160006Ec, symObjAddr: 0x3AF8, symBinAddr: 0x100005640, symSize: 0x38 }
  - { offsetInCU: 0x100CC, offset: 0x100CC, size: 0x8, addend: 0x0, symName: __ZNSt3__112basic_stringIcNS_11char_traitsIcEENS_9allocatorIcEEEC2B7v160006IDnEEPKc, symObjAddr: 0x3B30, symBinAddr: 0x100005678, symSize: 0x60 }
  - { offsetInCU: 0x1010A, offset: 0x1010A, size: 0x8, addend: 0x0, symName: __ZNSt3__111char_traitsIcE6lengthEPKc, symObjAddr: 0x3B90, symBinAddr: 0x1000056D8, symSize: 0x48 }
  - { offsetInCU: 0x1012D, offset: 0x1012D, size: 0x8, addend: 0x0, symName: __ZN5Eigen8IOFormatC2EiiRKNSt3__112basic_stringIcNS1_11char_traitsIcEENS1_9allocatorIcEEEES9_S9_S9_S9_S9_c, symObjAddr: 0x3BFC, symBinAddr: 0x100005744, symSize: 0x2A4 }
  - { offsetInCU: 0x101EC, offset: 0x101EC, size: 0x8, addend: 0x0, symName: __ZNSt3__112basic_stringIcNS_11char_traitsIcEENS_9allocatorIcEEEixB7v160006Em, symObjAddr: 0x3EA0, symBinAddr: 0x1000059E8, symSize: 0x30 }
  - { offsetInCU: 0x10221, offset: 0x10221, size: 0x8, addend: 0x0, symName: __ZNSt3__112basic_stringIcNS_11char_traitsIcEENS_9allocatorIcEEEpLB7v160006Ec, symObjAddr: 0x3ED0, symBinAddr: 0x100005A18, symSize: 0x34 }
  - { offsetInCU: 0x10256, offset: 0x10256, size: 0x8, addend: 0x0, symName: __ZNSt3__112basic_stringIcNS_11char_traitsIcEENS_9allocatorIcEEE13__get_pointerB7v160006Ev, symObjAddr: 0x3F04, symBinAddr: 0x100005A4C, symSize: 0x54 }
  - { offsetInCU: 0x1027C, offset: 0x1027C, size: 0x8, addend: 0x0, symName: __ZNSt3__112basic_stringIcNS_11char_traitsIcEENS_9allocatorIcEEE18__get_long_pointerB7v160006Ev, symObjAddr: 0x3F58, symBinAddr: 0x100005AA0, symSize: 0x28 }
  - { offsetInCU: 0x102A2, offset: 0x102A2, size: 0x8, addend: 0x0, symName: __ZNSt3__112basic_stringIcNS_11char_traitsIcEENS_9allocatorIcEEE19__get_short_pointerB7v160006Ev, symObjAddr: 0x3F80, symBinAddr: 0x100005AC8, symSize: 0x28 }
  - { offsetInCU: 0x102C8, offset: 0x102C8, size: 0x8, addend: 0x0, symName: __ZNSt3__114pointer_traitsIPcE10pointer_toB7v160006ERc, symObjAddr: 0x3FA8, symBinAddr: 0x100005AF0, symSize: 0x14 }
  - { offsetInCU: 0x102EB, offset: 0x102EB, size: 0x8, addend: 0x0, symName: __ZN5Eigen8IOFormatD2Ev, symObjAddr: 0x3FBC, symBinAddr: 0x100005B04, symSize: 0x168 }
  - { offsetInCU: 0x10317, offset: 0x10317, size: 0x8, addend: 0x0, symName: __ZNK5Eigen10MatrixBaseINS_6MatrixINSt3__17complexIdEELin1ELin1ELi0ELin1ELin1EEEE9cwiseAbs2Ev, symObjAddr: 0x4148, symBinAddr: 0x100005C90, symSize: 0x4C }
  - { offsetInCU: 0x1033D, offset: 0x1033D, size: 0x8, addend: 0x0, symName: __ZNK5Eigen9DenseBaseINS_12CwiseUnaryOpINS_8internal14scalar_abs2_opINSt3__17complexIdEEEEKNS_6MatrixIS6_Lin1ELin1ELi0ELin1ELin1EEEEEE3sumEv, symObjAddr: 0x4194, symBinAddr: 0x100005CDC, symSize: 0x74 }
  - { offsetInCU: 0x10366, offset: 0x10366, size: 0x8, addend: 0x0, symName: __ZN5Eigen8internal17real_default_implIdLb0EE3runERKd, symObjAddr: 0x4208, symBinAddr: 0x100005D50, symSize: 0x18 }
  - { offsetInCU: 0x10389, offset: 0x10389, size: 0x8, addend: 0x0, symName: __ZN5Eigen8internal14scalar_abs2_opINSt3__17complexIdEEEC1Ev, symObjAddr: 0x4220, symBinAddr: 0x100005D68, symSize: 0x2C }
  - { offsetInCU: 0x103B3, offset: 0x103B3, size: 0x8, addend: 0x0, symName: __ZN5Eigen12CwiseUnaryOpINS_8internal14scalar_abs2_opINSt3__17complexIdEEEEKNS_6MatrixIS5_Lin1ELin1ELi0ELin1ELin1EEEEC1ERS9_RKS6_, symObjAddr: 0x424C, symBinAddr: 0x100005D94, symSize: 0x3C }
  - { offsetInCU: 0x103F9, offset: 0x103F9, size: 0x8, addend: 0x0, symName: __ZN5Eigen8internal14scalar_abs2_opINSt3__17complexIdEEEC2Ev, symObjAddr: 0x4288, symBinAddr: 0x100005DD0, symSize: 0x14 }
  - { offsetInCU: 0x10423, offset: 0x10423, size: 0x8, addend: 0x0, symName: __ZN5Eigen12CwiseUnaryOpINS_8internal14scalar_abs2_opINSt3__17complexIdEEEEKNS_6MatrixIS5_Lin1ELin1ELi0ELin1ELin1EEEEC2ERS9_RKS6_, symObjAddr: 0x429C, symBinAddr: 0x100005DE4, symSize: 0x54 }
  - { offsetInCU: 0x1046E, offset: 0x1046E, size: 0x8, addend: 0x0, symName: __ZN5Eigen16CwiseUnaryOpImplINS_8internal14scalar_abs2_opINSt3__17complexIdEEEEKNS_6MatrixIS5_Lin1ELin1ELi0ELin1ELin1EEENS_5DenseEEC2Ev, symObjAddr: 0x42F0, symBinAddr: 0x100005E38, symSize: 0x2C }
  - { offsetInCU: 0x1049A, offset: 0x1049A, size: 0x8, addend: 0x0, symName: __ZN5Eigen8internal22no_assignment_operatorC2Ev, symObjAddr: 0x431C, symBinAddr: 0x100005E64, symSize: 0x14 }
  - { offsetInCU: 0x104C4, offset: 0x104C4, size: 0x8, addend: 0x0, symName: __ZN5Eigen8internal14scalar_abs2_opINSt3__17complexIdEEEC1ERKS5_, symObjAddr: 0x4330, symBinAddr: 0x100005E78, symSize: 0x34 }
  - { offsetInCU: 0x104F9, offset: 0x104F9, size: 0x8, addend: 0x0, symName: __ZN5Eigen10MatrixBaseINS_12CwiseUnaryOpINS_8internal14scalar_abs2_opINSt3__17complexIdEEEEKNS_6MatrixIS6_Lin1ELin1ELi0ELin1ELin1EEEEEEC2Ev, symObjAddr: 0x4364, symBinAddr: 0x100005EAC, symSize: 0x2C }
  - { offsetInCU: 0x10523, offset: 0x10523, size: 0x8, addend: 0x0, symName: __ZN5Eigen9DenseBaseINS_12CwiseUnaryOpINS_8internal14scalar_abs2_opINSt3__17complexIdEEEEKNS_6MatrixIS6_Lin1ELin1ELi0ELin1ELin1EEEEEEC2Ev, symObjAddr: 0x4390, symBinAddr: 0x100005ED8, symSize: 0x14 }
  - { offsetInCU: 0x1054D, offset: 0x1054D, size: 0x8, addend: 0x0, symName: __ZN5Eigen8internal14scalar_abs2_opINSt3__17complexIdEEEC2ERKS5_, symObjAddr: 0x43A4, symBinAddr: 0x100005EEC, symSize: 0x18 }
  - { offsetInCU: 0x10582, offset: 0x10582, size: 0x8, addend: 0x0, symName: __ZNK5Eigen9EigenBaseINS_12CwiseUnaryOpINS_8internal14scalar_abs2_opINSt3__17complexIdEEEEKNS_6MatrixIS6_Lin1ELin1ELi0ELin1ELin1EEEEEE4sizeEv, symObjAddr: 0x43BC, symBinAddr: 0x100005F04, symSize: 0x44 }
  - { offsetInCU: 0x105A8, offset: 0x105A8, size: 0x8, addend: 0x0, symName: __ZNK5Eigen9EigenBaseINS_12CwiseUnaryOpINS_8internal14scalar_abs2_opINSt3__17complexIdEEEEKNS_6MatrixIS6_Lin1ELin1ELi0ELin1ELin1EEEEEE7derivedEv, symObjAddr: 0x4400, symBinAddr: 0x100005F48, symSize: 0x14 }
  - { offsetInCU: 0x105E2, offset: 0x105E2, size: 0x8, addend: 0x0, symName: __ZNK5Eigen9DenseBaseINS_12CwiseUnaryOpINS_8internal14scalar_abs2_opINSt3__17complexIdEEEEKNS_6MatrixIS6_Lin1ELin1ELi0ELin1ELin1EEEEEE5reduxINS2_13scalar_sum_opIddEEEEdRKT_, symObjAddr: 0x4414, symBinAddr: 0x100005F5C, symSize: 0x114 }
  - { offsetInCU: 0x1063E, offset: 0x1063E, size: 0x8, addend: 0x0, symName: __ZN5Eigen8internal13scalar_sum_opIddEC1Ev, symObjAddr: 0x4528, symBinAddr: 0x100006070, symSize: 0x2C }
  - { offsetInCU: 0x10668, offset: 0x10668, size: 0x8, addend: 0x0, symName: __ZNK5Eigen9EigenBaseINS_12CwiseUnaryOpINS_8internal14scalar_abs2_opINSt3__17complexIdEEEEKNS_6MatrixIS6_Lin1ELin1ELi0ELin1ELin1EEEEEE4rowsEv, symObjAddr: 0x4554, symBinAddr: 0x10000609C, symSize: 0x28 }
  - { offsetInCU: 0x1068E, offset: 0x1068E, size: 0x8, addend: 0x0, symName: __ZNK5Eigen9EigenBaseINS_12CwiseUnaryOpINS_8internal14scalar_abs2_opINSt3__17complexIdEEEEKNS_6MatrixIS6_Lin1ELin1ELi0ELin1ELin1EEEEEE4colsEv, symObjAddr: 0x457C, symBinAddr: 0x1000060C4, symSize: 0x28 }
  - { offsetInCU: 0x106B4, offset: 0x106B4, size: 0x8, addend: 0x0, symName: __ZNK5Eigen12CwiseUnaryOpINS_8internal14scalar_abs2_opINSt3__17complexIdEEEEKNS_6MatrixIS5_Lin1ELin1ELi0ELin1ELin1EEEE4rowsEv, symObjAddr: 0x45A4, symBinAddr: 0x1000060EC, symSize: 0x28 }
  - { offsetInCU: 0x106DA, offset: 0x106DA, size: 0x8, addend: 0x0, symName: __ZNK5Eigen12CwiseUnaryOpINS_8internal14scalar_abs2_opINSt3__17complexIdEEEEKNS_6MatrixIS5_Lin1ELin1ELi0ELin1ELin1EEEE4colsEv, symObjAddr: 0x45CC, symBinAddr: 0x100006114, symSize: 0x28 }
  - { offsetInCU: 0x107A5, offset: 0x107A5, size: 0x8, addend: 0x0, symName: __ZN5Eigen8internal15redux_evaluatorINS_12CwiseUnaryOpINS0_14scalar_abs2_opINSt3__17complexIdEEEEKNS_6MatrixIS6_Lin1ELin1ELi0ELin1ELin1EEEEEEC1ERKSB_, symObjAddr: 0x45F4, symBinAddr: 0x10000613C, symSize: 0x34 }
  - { offsetInCU: 0x107E3, offset: 0x107E3, size: 0x8, addend: 0x0, symName: __ZN5Eigen8internal10redux_implINS0_13scalar_sum_opIddEENS0_15redux_evaluatorINS_12CwiseUnaryOpINS0_14scalar_abs2_opINSt3__17complexIdEEEEKNS_6MatrixIS9_Lin1ELin1ELi0ELin1ELin1EEEEEEELi0ELi0EE3runISE_EEdRKSF_RKS3_RKT_, symObjAddr: 0x4628, symBinAddr: 0x100006170, symSize: 0x1E0 }
  - { offsetInCU: 0x1088E, offset: 0x1088E, size: 0x8, addend: 0x0, symName: __ZN5Eigen8internal15redux_evaluatorINS_12CwiseUnaryOpINS0_14scalar_abs2_opINSt3__17complexIdEEEEKNS_6MatrixIS6_Lin1ELin1ELi0ELin1ELin1EEEEEED1Ev, symObjAddr: 0x4808, symBinAddr: 0x100006350, symSize: 0x2C }
  - { offsetInCU: 0x108BB, offset: 0x108BB, size: 0x8, addend: 0x0, symName: __ZN5Eigen8internal15redux_evaluatorINS_12CwiseUnaryOpINS0_14scalar_abs2_opINSt3__17complexIdEEEEKNS_6MatrixIS6_Lin1ELin1ELi0ELin1ELin1EEEEEEC2ERKSB_, symObjAddr: 0x4834, symBinAddr: 0x10000637C, symSize: 0x34 }
  - { offsetInCU: 0x108F4, offset: 0x108F4, size: 0x8, addend: 0x0, symName: __ZN5Eigen8internal9evaluatorINS_12CwiseUnaryOpINS0_14scalar_abs2_opINSt3__17complexIdEEEEKNS_6MatrixIS6_Lin1ELin1ELi0ELin1ELin1EEEEEEC2ERKSB_, symObjAddr: 0x4868, symBinAddr: 0x1000063B0, symSize: 0x34 }
  - { offsetInCU: 0x1092C, offset: 0x1092C, size: 0x8, addend: 0x0, symName: __ZN5Eigen8internal15unary_evaluatorINS_12CwiseUnaryOpINS0_14scalar_abs2_opINSt3__17complexIdEEEEKNS_6MatrixIS6_Lin1ELin1ELi0ELin1ELin1EEEEENS0_10IndexBasedEdEC2ERKSB_, symObjAddr: 0x489C, symBinAddr: 0x1000063E4, symSize: 0x6C }
  - { offsetInCU: 0x10965, offset: 0x10965, size: 0x8, addend: 0x0, symName: __ZN5Eigen8internal14evaluator_baseINS_12CwiseUnaryOpINS0_14scalar_abs2_opINSt3__17complexIdEEEEKNS_6MatrixIS6_Lin1ELin1ELi0ELin1ELin1EEEEEEC2Ev, symObjAddr: 0x4908, symBinAddr: 0x100006450, symSize: 0x14 }
  - { offsetInCU: 0x1098F, offset: 0x1098F, size: 0x8, addend: 0x0, symName: __ZN5Eigen8internal15unary_evaluatorINS_12CwiseUnaryOpINS0_14scalar_abs2_opINSt3__17complexIdEEEEKNS_6MatrixIS6_Lin1ELin1ELi0ELin1ELin1EEEEENS0_10IndexBasedEdE4DataC1ERKSB_, symObjAddr: 0x491C, symBinAddr: 0x100006464, symSize: 0x34 }
  - { offsetInCU: 0x109C8, offset: 0x109C8, size: 0x8, addend: 0x0, symName: __ZN5Eigen8internal14evaluator_baseINS_12CwiseUnaryOpINS0_14scalar_abs2_opINSt3__17complexIdEEEEKNS_6MatrixIS6_Lin1ELin1ELi0ELin1ELin1EEEEEED2Ev, symObjAddr: 0x4950, symBinAddr: 0x100006498, symSize: 0x14 }
  - { offsetInCU: 0x109F2, offset: 0x109F2, size: 0x8, addend: 0x0, symName: __ZN5Eigen8internal15unary_evaluatorINS_12CwiseUnaryOpINS0_14scalar_abs2_opINSt3__17complexIdEEEEKNS_6MatrixIS6_Lin1ELin1ELi0ELin1ELin1EEEEENS0_10IndexBasedEdE4DataC2ERKSB_, symObjAddr: 0x4964, symBinAddr: 0x1000064AC, symSize: 0x58 }
  - { offsetInCU: 0x10A2B, offset: 0x10A2B, size: 0x8, addend: 0x0, symName: __ZNK5Eigen12CwiseUnaryOpINS_8internal14scalar_abs2_opINSt3__17complexIdEEEEKNS_6MatrixIS5_Lin1ELin1ELi0ELin1ELin1EEEE7functorEv, symObjAddr: 0x49BC, symBinAddr: 0x100006504, symSize: 0x18 }
  - { offsetInCU: 0x10A51, offset: 0x10A51, size: 0x8, addend: 0x0, symName: __ZNK5Eigen12CwiseUnaryOpINS_8internal14scalar_abs2_opINSt3__17complexIdEEEEKNS_6MatrixIS5_Lin1ELin1ELi0ELin1ELin1EEEE16nestedExpressionEv, symObjAddr: 0x49D4, symBinAddr: 0x10000651C, symSize: 0x18 }
  - { offsetInCU: 0x10A77, offset: 0x10A77, size: 0x8, addend: 0x0, symName: __ZN5Eigen8internal9evaluatorIKNS_6MatrixINSt3__17complexIdEELin1ELin1ELi0ELin1ELin1EEEEC1ERS7_, symObjAddr: 0x49EC, symBinAddr: 0x100006534, symSize: 0x34 }
  - { offsetInCU: 0x10AAF, offset: 0x10AAF, size: 0x8, addend: 0x0, symName: __ZN5Eigen8internal9evaluatorIKNS_6MatrixINSt3__17complexIdEELin1ELin1ELi0ELin1ELin1EEEEC2ERS7_, symObjAddr: 0x4A20, symBinAddr: 0x100006568, symSize: 0x34 }
  - { offsetInCU: 0x10AE7, offset: 0x10AE7, size: 0x8, addend: 0x0, symName: __ZN5Eigen8internal9evaluatorINS_6MatrixINSt3__17complexIdEELin1ELin1ELi0ELin1ELin1EEEEC2ERKS6_, symObjAddr: 0x4A54, symBinAddr: 0x10000659C, symSize: 0x34 }
  - { offsetInCU: 0x10B20, offset: 0x10B20, size: 0x8, addend: 0x0, symName: __ZN5Eigen8internal9evaluatorINS_15PlainObjectBaseINS_6MatrixINSt3__17complexIdEELin1ELin1ELi0ELin1ELin1EEEEEEC2ERKS8_, symObjAddr: 0x4A88, symBinAddr: 0x1000065D0, symSize: 0x90 }
  - { offsetInCU: 0x10B58, offset: 0x10B58, size: 0x8, addend: 0x0, symName: __ZN5Eigen8internal14evaluator_baseINS_6MatrixINSt3__17complexIdEELin1ELin1ELi0ELin1ELin1EEEEC2Ev, symObjAddr: 0x4B18, symBinAddr: 0x100006660, symSize: 0x14 }
  - { offsetInCU: 0x10B82, offset: 0x10B82, size: 0x8, addend: 0x0, symName: __ZNK5Eigen15PlainObjectBaseINS_6MatrixINSt3__17complexIdEELin1ELin1ELi0ELin1ELin1EEEE4dataEv, symObjAddr: 0x4B2C, symBinAddr: 0x100006674, symSize: 0x24 }
  - { offsetInCU: 0x10BA8, offset: 0x10BA8, size: 0x8, addend: 0x0, symName: __ZNK5Eigen15DenseCoeffsBaseINS_6MatrixINSt3__17complexIdEELin1ELin1ELi0ELin1ELin1EEELi3EE11outerStrideEv, symObjAddr: 0x4B50, symBinAddr: 0x100006698, symSize: 0x28 }
  - { offsetInCU: 0x10BCE, offset: 0x10BCE, size: 0x8, addend: 0x0, symName: __ZN5Eigen8internal30plainobjectbase_evaluator_dataINSt3__17complexIdEELin1EEC1EPKS4_l, symObjAddr: 0x4B78, symBinAddr: 0x1000066C0, symSize: 0x3C }
  - { offsetInCU: 0x10C14, offset: 0x10C14, size: 0x8, addend: 0x0, symName: __ZN5Eigen8internal14evaluator_baseINS_6MatrixINSt3__17complexIdEELin1ELin1ELi0ELin1ELin1EEEED2Ev, symObjAddr: 0x4BB4, symBinAddr: 0x1000066FC, symSize: 0x14 }
  - { offsetInCU: 0x10C3E, offset: 0x10C3E, size: 0x8, addend: 0x0, symName: __ZNK5Eigen6MatrixINSt3__17complexIdEELin1ELin1ELi0ELin1ELin1EE11outerStrideEv, symObjAddr: 0x4BC8, symBinAddr: 0x100006710, symSize: 0x24 }
  - { offsetInCU: 0x10C64, offset: 0x10C64, size: 0x8, addend: 0x0, symName: __ZNK5Eigen9DenseBaseINS_6MatrixINSt3__17complexIdEELin1ELin1ELi0ELin1ELin1EEEE9innerSizeEv, symObjAddr: 0x4BEC, symBinAddr: 0x100006734, symSize: 0x24 }
  - { offsetInCU: 0x10C8A, offset: 0x10C8A, size: 0x8, addend: 0x0, symName: __ZN5Eigen8internal30plainobjectbase_evaluator_dataINSt3__17complexIdEELin1EEC2EPKS4_l, symObjAddr: 0x4C10, symBinAddr: 0x100006758, symSize: 0x2C }
  - { offsetInCU: 0x10CD0, offset: 0x10CD0, size: 0x8, addend: 0x0, symName: __ZNK5Eigen8internal15redux_evaluatorINS_12CwiseUnaryOpINS0_14scalar_abs2_opINSt3__17complexIdEEEEKNS_6MatrixIS6_Lin1ELin1ELi0ELin1ELin1EEEEEE17coeffByOuterInnerEll, symObjAddr: 0x4C3C, symBinAddr: 0x100006784, symSize: 0x34 }
  - { offsetInCU: 0x10D14, offset: 0x10D14, size: 0x8, addend: 0x0, symName: __ZNK5Eigen9DenseBaseINS_12CwiseUnaryOpINS_8internal14scalar_abs2_opINSt3__17complexIdEEEEKNS_6MatrixIS6_Lin1ELin1ELi0ELin1ELin1EEEEEE9innerSizeEv, symObjAddr: 0x4C70, symBinAddr: 0x1000067B8, symSize: 0x24 }
  - { offsetInCU: 0x10D3A, offset: 0x10D3A, size: 0x8, addend: 0x0, symName: __ZNK5Eigen8internal13scalar_sum_opIddEclERKdS4_, symObjAddr: 0x4C94, symBinAddr: 0x1000067DC, symSize: 0x2C }
  - { offsetInCU: 0x10D7C, offset: 0x10D7C, size: 0x8, addend: 0x0, symName: __ZNK5Eigen9DenseBaseINS_12CwiseUnaryOpINS_8internal14scalar_abs2_opINSt3__17complexIdEEEEKNS_6MatrixIS6_Lin1ELin1ELi0ELin1ELin1EEEEEE9outerSizeEv, symObjAddr: 0x4CC0, symBinAddr: 0x100006808, symSize: 0x24 }
  - { offsetInCU: 0x10DA2, offset: 0x10DA2, size: 0x8, addend: 0x0, symName: __ZNK5Eigen8internal15unary_evaluatorINS_12CwiseUnaryOpINS0_14scalar_abs2_opINSt3__17complexIdEEEEKNS_6MatrixIS6_Lin1ELin1ELi0ELin1ELin1EEEEENS0_10IndexBasedEdE5coeffEll, symObjAddr: 0x4CE4, symBinAddr: 0x10000682C, symSize: 0x54 }
  - { offsetInCU: 0x10DE6, offset: 0x10DE6, size: 0x8, addend: 0x0, symName: __ZNK5Eigen8internal15unary_evaluatorINS_12CwiseUnaryOpINS0_14scalar_abs2_opINSt3__17complexIdEEEEKNS_6MatrixIS6_Lin1ELin1ELi0ELin1ELin1EEEEENS0_10IndexBasedEdE4Data4funcEv, symObjAddr: 0x4D38, symBinAddr: 0x100006880, symSize: 0x14 }
  - { offsetInCU: 0x10E0C, offset: 0x10E0C, size: 0x8, addend: 0x0, symName: __ZNK5Eigen8internal14scalar_abs2_opINSt3__17complexIdEEEclERKS4_, symObjAddr: 0x4D4C, symBinAddr: 0x100006894, symSize: 0x28 }
  - { offsetInCU: 0x10E40, offset: 0x10E40, size: 0x8, addend: 0x0, symName: __ZNK5Eigen8internal9evaluatorINS_15PlainObjectBaseINS_6MatrixINSt3__17complexIdEELin1ELin1ELi0ELin1ELin1EEEEEE5coeffEll, symObjAddr: 0x4D74, symBinAddr: 0x1000068BC, symSize: 0x5C }
  - { offsetInCU: 0x10E82, offset: 0x10E82, size: 0x8, addend: 0x0, symName: __ZN5Eigen8internal9abs2_implINSt3__17complexIdEEE3runERKS4_, symObjAddr: 0x4DF4, symBinAddr: 0x10000693C, symSize: 0x24 }
  - { offsetInCU: 0x10EA6, offset: 0x10EA6, size: 0x8, addend: 0x0, symName: __ZN5Eigen8internal17abs2_impl_defaultINSt3__17complexIdEELb1EE3runERKS4_, symObjAddr: 0x4E18, symBinAddr: 0x100006960, symSize: 0x60 }
  - { offsetInCU: 0x10ECA, offset: 0x10ECA, size: 0x8, addend: 0x0, symName: __ZNK5Eigen8internal30plainobjectbase_evaluator_dataINSt3__17complexIdEELin1EE11outerStrideEv, symObjAddr: 0x4E78, symBinAddr: 0x1000069C0, symSize: 0x18 }
  - { offsetInCU: 0x10EF0, offset: 0x10EF0, size: 0x8, addend: 0x0, symName: __ZN5Eigen8internal15redux_evaluatorINS_12CwiseUnaryOpINS0_14scalar_abs2_opINSt3__17complexIdEEEEKNS_6MatrixIS6_Lin1ELin1ELi0ELin1ELin1EEEEEED2Ev, symObjAddr: 0x4E90, symBinAddr: 0x1000069D8, symSize: 0x2C }
  - { offsetInCU: 0x10F1D, offset: 0x10F1D, size: 0x8, addend: 0x0, symName: __ZN5Eigen8internal9evaluatorINS_12CwiseUnaryOpINS0_14scalar_abs2_opINSt3__17complexIdEEEEKNS_6MatrixIS6_Lin1ELin1ELi0ELin1ELin1EEEEEED2Ev, symObjAddr: 0x4EBC, symBinAddr: 0x100006A04, symSize: 0x2C }
  - { offsetInCU: 0x10F49, offset: 0x10F49, size: 0x8, addend: 0x0, symName: __ZN5Eigen8internal15unary_evaluatorINS_12CwiseUnaryOpINS0_14scalar_abs2_opINSt3__17complexIdEEEEKNS_6MatrixIS6_Lin1ELin1ELi0ELin1ELin1EEEEENS0_10IndexBasedEdED2Ev, symObjAddr: 0x4EE8, symBinAddr: 0x100006A30, symSize: 0x5C }
  - { offsetInCU: 0x10F75, offset: 0x10F75, size: 0x8, addend: 0x0, symName: __ZN5Eigen8internal15unary_evaluatorINS_12CwiseUnaryOpINS0_14scalar_abs2_opINSt3__17complexIdEEEEKNS_6MatrixIS6_Lin1ELin1ELi0ELin1ELin1EEEEENS0_10IndexBasedEdE4DataD1Ev, symObjAddr: 0x4F44, symBinAddr: 0x100006A8C, symSize: 0x2C }
  - { offsetInCU: 0x10FA2, offset: 0x10FA2, size: 0x8, addend: 0x0, symName: __ZN5Eigen8internal15unary_evaluatorINS_12CwiseUnaryOpINS0_14scalar_abs2_opINSt3__17complexIdEEEEKNS_6MatrixIS6_Lin1ELin1ELi0ELin1ELin1EEEEENS0_10IndexBasedEdE4DataD2Ev, symObjAddr: 0x4F70, symBinAddr: 0x100006AB8, symSize: 0x30 }
  - { offsetInCU: 0x10FCF, offset: 0x10FCF, size: 0x8, addend: 0x0, symName: __ZN5Eigen8internal9evaluatorIKNS_6MatrixINSt3__17complexIdEELin1ELin1ELi0ELin1ELin1EEEED1Ev, symObjAddr: 0x4FA0, symBinAddr: 0x100006AE8, symSize: 0x2C }
  - { offsetInCU: 0x10FFB, offset: 0x10FFB, size: 0x8, addend: 0x0, symName: __ZN5Eigen8internal9evaluatorIKNS_6MatrixINSt3__17complexIdEELin1ELin1ELi0ELin1ELin1EEEED2Ev, symObjAddr: 0x4FCC, symBinAddr: 0x100006B14, symSize: 0x2C }
  - { offsetInCU: 0x11027, offset: 0x11027, size: 0x8, addend: 0x0, symName: __ZN5Eigen8internal9evaluatorINS_6MatrixINSt3__17complexIdEELin1ELin1ELi0ELin1ELin1EEEED2Ev, symObjAddr: 0x4FF8, symBinAddr: 0x100006B40, symSize: 0x2C }
  - { offsetInCU: 0x11054, offset: 0x11054, size: 0x8, addend: 0x0, symName: __ZN5Eigen8internal9evaluatorINS_15PlainObjectBaseINS_6MatrixINSt3__17complexIdEELin1ELin1ELi0ELin1ELin1EEEEEED2Ev, symObjAddr: 0x5024, symBinAddr: 0x100006B6C, symSize: 0x2C }
  - { offsetInCU: 0x11080, offset: 0x11080, size: 0x8, addend: 0x0, symName: __ZN5Eigen8internal13scalar_sum_opIddEC2Ev, symObjAddr: 0x5050, symBinAddr: 0x100006B98, symSize: 0x14 }
...
